target datalayout = "e-m:e-p270:32:32-p271:32:32-p272:64:64-i64:64-i128:128-f80:128-n8:16:32:64-S128"
target triple = "x86_64-pc-linux-gnu"

%struct.AVFilterContext = type { ptr, ptr, ptr, ptr, ptr, i32, ptr, ptr, i32, ptr, ptr, i32, i32, ptr, ptr, ptr, ptr, i32, ptr, i32, i32 }
%struct.MorphoContext = type { ptr, %struct.FFFrameSync, [4 x %struct.chord_set], [4 x %struct.IPlane], [4 x %struct.IPlane], [4 x %struct.IPlane], [4 x %struct.IPlane], [64 x [2 x [4 x %struct.LUT]]], i32, i32, i32, [4 x i32], [4 x i32], [4 x i32], [4 x i32], i32, i32, i32, [4 x i32], ptr, ptr, ptr }
%struct.FFFrameSync = type { ptr, ptr, i32, %struct.AVRational, i64, ptr, ptr, i32, i32, i8, i8, ptr, i32, i32, i32, i32 }
%struct.AVRational = type { i32, i32 }
%struct.chord_set = type { ptr, i32, i32, ptr, i32, i32, i32, i32, i32, i32 }
%struct.IPlane = type { ptr, i32, i32, i32, i32, i32, ptr, ptr, ptr, ptr, ptr, ptr }
%struct.LUT = type { ptr, ptr, i32, i32, i32, i32, i32, i32 }
%struct.AVFilterLink = type { ptr, ptr, ptr, ptr, i32, i32, i32, i32, %struct.AVRational, i32, i32, i32, %struct.AVChannelLayout, %struct.AVRational, ptr, i32, %struct.AVFilterFormatsConfig, %struct.AVFilterFormatsConfig }
%struct.AVChannelLayout = type { i32, i32, %union.anon.1, ptr }
%union.anon.1 = type { i64 }
%struct.AVFilterFormatsConfig = type { ptr, ptr, ptr, ptr, ptr }
%struct.AVPixFmtDescriptor = type { ptr, i8, i8, i8, i64, [4 x %struct.AVComponentDescriptor], ptr }
%struct.AVComponentDescriptor = type { i32, i32, i32, i32, i32 }

; Function Attrs: nounwind uwtable
define internal i32 @config_input(ptr noundef %0) #0 {
  %2 = alloca ptr, align 8
  %3 = alloca ptr, align 8
  %4 = alloca ptr, align 8
  store ptr %0, ptr %2, align 8, !tbaa !28
  call void @llvm.lifetime.start.p0(i64 8, ptr %3) #12
  %5 = load ptr, ptr %2, align 8, !tbaa !28
  %6 = getelementptr inbounds nuw %struct.AVFilterLink, ptr %5, i32 0, i32 5
  %7 = load i32, ptr %6, align 4, !tbaa !30
  %8 = call ptr @av_pix_fmt_desc_get(i32 noundef %7)
  store ptr %8, ptr %3, align 8, !tbaa !38
  call void @llvm.lifetime.start.p0(i64 8, ptr %4) #12
  %9 = load ptr, ptr %2, align 8, !tbaa !28
  %10 = getelementptr inbounds nuw %struct.AVFilterLink, ptr %9, i32 0, i32 2
  %11 = load ptr, ptr %10, align 8, !tbaa !40
  %12 = getelementptr inbounds nuw %struct.AVFilterContext, ptr %11, i32 0, i32 9
  %13 = load ptr, ptr %12, align 8, !tbaa !9
  store ptr %13, ptr %4, align 8, !tbaa !22
  %14 = load ptr, ptr %3, align 8, !tbaa !38
  %15 = getelementptr inbounds nuw %struct.AVPixFmtDescriptor, ptr %14, i32 0, i32 5
  %16 = getelementptr inbounds [4 x %struct.AVComponentDescriptor], ptr %15, i64 0, i64 0
  %17 = getelementptr inbounds nuw %struct.AVComponentDescriptor, ptr %16, i32 0, i32 4
  %18 = load i32, ptr %17, align 8, !tbaa !41
  %19 = load ptr, ptr %4, align 8, !tbaa !22
  %20 = getelementptr inbounds nuw %struct.MorphoContext, ptr %19, i32 0, i32 15
  store i32 %18, ptr %20, align 4, !tbaa !43
  %21 = load ptr, ptr %4, align 8, !tbaa !22
  %22 = getelementptr inbounds nuw %struct.MorphoContext, ptr %21, i32 0, i32 15
  %23 = load i32, ptr %22, align 4, !tbaa !43
  %24 = add nsw i32 %23, 7
  %25 = sdiv i32 %24, 8
  %26 = load ptr, ptr %4, align 8, !tbaa !22
  %27 = getelementptr inbounds nuw %struct.MorphoContext, ptr %26, i32 0, i32 16
  store i32 %25, ptr %27, align 8, !tbaa !50
  %28 = load ptr, ptr %3, align 8, !tbaa !38
  %29 = getelementptr inbounds nuw %struct.AVPixFmtDescriptor, ptr %28, i32 0, i32 1
  %30 = load i8, ptr %29, align 8, !tbaa !51
  %31 = zext i8 %30 to i32
  %32 = load ptr, ptr %4, align 8, !tbaa !22
  %33 = getelementptr inbounds nuw %struct.MorphoContext, ptr %32, i32 0, i32 17
  store i32 %31, ptr %33, align 4, !tbaa !53
  %34 = load ptr, ptr %3, align 8, !tbaa !38
  %35 = getelementptr inbounds nuw %struct.AVPixFmtDescriptor, ptr %34, i32 0, i32 2
  %36 = load i8, ptr %35, align 1, !tbaa !54
  %37 = call i1 @llvm.is.constant.i8(i8 %36)
  br i1 %37, label %49, label %38

38:                                               ; preds = %1
  %39 = load ptr, ptr %2, align 8, !tbaa !28
  %40 = getelementptr inbounds nuw %struct.AVFilterLink, ptr %39, i32 0, i32 6
  %41 = load i32, ptr %40, align 8, !tbaa !55
  %42 = sub nsw i32 0, %41
  %43 = load ptr, ptr %3, align 8, !tbaa !38
  %44 = getelementptr inbounds nuw %struct.AVPixFmtDescriptor, ptr %43, i32 0, i32 2
  %45 = load i8, ptr %44, align 1, !tbaa !54
  %46 = zext i8 %45 to i32
  %47 = ashr i32 %42, %46
  %48 = sub nsw i32 0, %47
  br label %65

49:                                               ; preds = %1
  %50 = load ptr, ptr %2, align 8, !tbaa !28
  %51 = getelementptr inbounds nuw %struct.AVFilterLink, ptr %50, i32 0, i32 6
  %52 = load i32, ptr %51, align 8, !tbaa !55
  %53 = load ptr, ptr %3, align 8, !tbaa !38
  %54 = getelementptr inbounds nuw %struct.AVPixFmtDescriptor, ptr %53, i32 0, i32 2
  %55 = load i8, ptr %54, align 1, !tbaa !54
  %56 = zext i8 %55 to i32
  %57 = shl i32 1, %56
  %58 = add nsw i32 %52, %57
  %59 = sub nsw i32 %58, 1
  %60 = load ptr, ptr %3, align 8, !tbaa !38
  %61 = getelementptr inbounds nuw %struct.AVPixFmtDescriptor, ptr %60, i32 0, i32 2
  %62 = load i8, ptr %61, align 1, !tbaa !54
  %63 = zext i8 %62 to i32
  %64 = ashr i32 %59, %63
  br label %65

65:                                               ; preds = %49, %38
  %66 = phi i32 [ %48, %38 ], [ %64, %49 ]
  %67 = load ptr, ptr %4, align 8, !tbaa !22
  %68 = getelementptr inbounds nuw %struct.MorphoContext, ptr %67, i32 0, i32 11
  %69 = getelementptr inbounds [4 x i32], ptr %68, i64 0, i64 2
  store i32 %66, ptr %69, align 4, !tbaa !24
  %70 = load ptr, ptr %4, align 8, !tbaa !22
  %71 = getelementptr inbounds nuw %struct.MorphoContext, ptr %70, i32 0, i32 11
  %72 = getelementptr inbounds [4 x i32], ptr %71, i64 0, i64 1
  store i32 %66, ptr %72, align 4, !tbaa !24
  %73 = load ptr, ptr %2, align 8, !tbaa !28
  %74 = getelementptr inbounds nuw %struct.AVFilterLink, ptr %73, i32 0, i32 6
  %75 = load i32, ptr %74, align 8, !tbaa !55
  %76 = load ptr, ptr %4, align 8, !tbaa !22
  %77 = getelementptr inbounds nuw %struct.MorphoContext, ptr %76, i32 0, i32 11
  %78 = getelementptr inbounds [4 x i32], ptr %77, i64 0, i64 3
  store i32 %75, ptr %78, align 4, !tbaa !24
  %79 = load ptr, ptr %4, align 8, !tbaa !22
  %80 = getelementptr inbounds nuw %struct.MorphoContext, ptr %79, i32 0, i32 11
  %81 = getelementptr inbounds [4 x i32], ptr %80, i64 0, i64 0
  store i32 %75, ptr %81, align 4, !tbaa !24
  %82 = load ptr, ptr %3, align 8, !tbaa !38
  %83 = getelementptr inbounds nuw %struct.AVPixFmtDescriptor, ptr %82, i32 0, i32 3
  %84 = load i8, ptr %83, align 2, !tbaa !56
  %85 = call i1 @llvm.is.constant.i8(i8 %84)
  br i1 %85, label %97, label %86

86:                                               ; preds = %65
  %87 = load ptr, ptr %2, align 8, !tbaa !28
  %88 = getelementptr inbounds nuw %struct.AVFilterLink, ptr %87, i32 0, i32 7
  %89 = load i32, ptr %88, align 4, !tbaa !57
  %90 = sub nsw i32 0, %89
  %91 = load ptr, ptr %3, align 8, !tbaa !38
  %92 = getelementptr inbounds nuw %struct.AVPixFmtDescriptor, ptr %91, i32 0, i32 3
  %93 = load i8, ptr %92, align 2, !tbaa !56
  %94 = zext i8 %93 to i32
  %95 = ashr i32 %90, %94
  %96 = sub nsw i32 0, %95
  br label %113

97:                                               ; preds = %65
  %98 = load ptr, ptr %2, align 8, !tbaa !28
  %99 = getelementptr inbounds nuw %struct.AVFilterLink, ptr %98, i32 0, i32 7
  %100 = load i32, ptr %99, align 4, !tbaa !57
  %101 = load ptr, ptr %3, align 8, !tbaa !38
  %102 = getelementptr inbounds nuw %struct.AVPixFmtDescriptor, ptr %101, i32 0, i32 3
  %103 = load i8, ptr %102, align 2, !tbaa !56
  %104 = zext i8 %103 to i32
  %105 = shl i32 1, %104
  %106 = add nsw i32 %100, %105
  %107 = sub nsw i32 %106, 1
  %108 = load ptr, ptr %3, align 8, !tbaa !38
  %109 = getelementptr inbounds nuw %struct.AVPixFmtDescriptor, ptr %108, i32 0, i32 3
  %110 = load i8, ptr %109, align 2, !tbaa !56
  %111 = zext i8 %110 to i32
  %112 = ashr i32 %107, %111
  br label %113

113:                                              ; preds = %97, %86
  %114 = phi i32 [ %96, %86 ], [ %112, %97 ]
  %115 = load ptr, ptr %4, align 8, !tbaa !22
  %116 = getelementptr inbounds nuw %struct.MorphoContext, ptr %115, i32 0, i32 12
  %117 = getelementptr inbounds [4 x i32], ptr %116, i64 0, i64 2
  store i32 %114, ptr %117, align 4, !tbaa !24
  %118 = load ptr, ptr %4, align 8, !tbaa !22
  %119 = getelementptr inbounds nuw %struct.MorphoContext, ptr %118, i32 0, i32 12
  %120 = getelementptr inbounds [4 x i32], ptr %119, i64 0, i64 1
  store i32 %114, ptr %120, align 4, !tbaa !24
  %121 = load ptr, ptr %2, align 8, !tbaa !28
  %122 = getelementptr inbounds nuw %struct.AVFilterLink, ptr %121, i32 0, i32 7
  %123 = load i32, ptr %122, align 4, !tbaa !57
  %124 = load ptr, ptr %4, align 8, !tbaa !22
  %125 = getelementptr inbounds nuw %struct.MorphoContext, ptr %124, i32 0, i32 12
  %126 = getelementptr inbounds [4 x i32], ptr %125, i64 0, i64 3
  store i32 %123, ptr %126, align 4, !tbaa !24
  %127 = load ptr, ptr %4, align 8, !tbaa !22
  %128 = getelementptr inbounds nuw %struct.MorphoContext, ptr %127, i32 0, i32 12
  %129 = getelementptr inbounds [4 x i32], ptr %128, i64 0, i64 0
  store i32 %123, ptr %129, align 4, !tbaa !24
  call void @llvm.lifetime.end.p0(i64 8, ptr %4) #12
  call void @llvm.lifetime.end.p0(i64 8, ptr %3) #12
  ret i32 0
}