; Function Attrs: nounwind uwtable
define internal noundef i32 @config_input(ptr noundef readonly captures(none) %0) #0 {
  %2 = getelementptr inbounds nuw i8, ptr %0, i64 36
  %3 = load i32, ptr %2, align 4, !tbaa !29
  %4 = tail call ptr @av_pix_fmt_desc_get(i32 noundef %3) #14
  %5 = getelementptr inbounds nuw i8, ptr %0, i64 16
  %6 = load ptr, ptr %5, align 8, !tbaa !38
  %7 = getelementptr inbounds nuw i8, ptr %6, i64 72
  %8 = load ptr, ptr %7, align 8, !tbaa !4
  %9 = getelementptr inbounds nuw i8, ptr %4, i64 40
  %10 = load i32, ptr %9, align 8, !tbaa !39
  %11 = getelementptr inbounds nuw i8, ptr %8, i64 22132
  store i32 %10, ptr %11, align 4, !tbaa !41
  %12 = add nsw i32 %10, 7
  %13 = sdiv i32 %12, 8
  %14 = getelementptr inbounds nuw i8, ptr %8, i64 22136
  store i32 %13, ptr %14, align 8, !tbaa !48
  %15 = getelementptr inbounds nuw i8, ptr %4, i64 8
  %16 = load i8, ptr %15, align 8, !tbaa !49
  %17 = zext i8 %16 to i32
  %18 = getelementptr inbounds nuw i8, ptr %8, i64 22140
  store i32 %17, ptr %18, align 4, !tbaa !51
  %19 = getelementptr inbounds nuw i8, ptr %0, i64 40
  %20 = load i32, ptr %19, align 8, !tbaa !52
  %21 = sub nsw i32 0, %20
  %22 = getelementptr inbounds nuw i8, ptr %4, i64 9
  %23 = load i8, ptr %22, align 1, !tbaa !53
  %24 = zext nneg i8 %23 to i32
  %25 = ashr i32 %21, %24
  %26 = sub nsw i32 0, %25
  %27 = getelementptr inbounds nuw i8, ptr %8, i64 22068
  %28 = getelementptr inbounds nuw i8, ptr %8, i64 22076
  store i32 %26, ptr %28, align 4, !tbaa !54
  %29 = getelementptr inbounds nuw i8, ptr %8, i64 22072
  store i32 %26, ptr %29, align 4, !tbaa !54
  %30 = getelementptr inbounds nuw i8, ptr %0, i64 40
  %31 = load i32, ptr %30, align 8, !tbaa !52
  %32 = getelementptr inbounds nuw i8, ptr %8, i64 22080
  store i32 %31, ptr %32, align 4, !tbaa !54
  store i32 %31, ptr %27, align 4, !tbaa !54
  %33 = getelementptr inbounds nuw i8, ptr %0, i64 44
  %34 = load i32, ptr %33, align 4, !tbaa !55
  %35 = sub nsw i32 0, %34
  %36 = getelementptr inbounds nuw i8, ptr %4, i64 10
  %37 = load i8, ptr %36, align 2, !tbaa !56
  %38 = zext nneg i8 %37 to i32
  %39 = ashr i32 %35, %38
  %40 = sub nsw i32 0, %39
  %41 = getelementptr inbounds nuw i8, ptr %8, i64 22084
  %42 = getelementptr inbounds nuw i8, ptr %8, i64 22092
  store i32 %40, ptr %42, align 4, !tbaa !54
  %43 = getelementptr inbounds nuw i8, ptr %8, i64 22088
  store i32 %40, ptr %43, align 4, !tbaa !54
  %44 = getelementptr inbounds nuw i8, ptr %0, i64 44
  %45 = load i32, ptr %44, align 4, !tbaa !55
  %46 = getelementptr inbounds nuw i8, ptr %8, i64 22096
  store i32 %45, ptr %46, align 4, !tbaa !54
  store i32 %45, ptr %41, align 4, !tbaa !54
  ret i32 0
}